target datalayout = "e-m:e-p270:32:32-p271:32:32-p272:64:64-i64:64-i128:128-f80:128-n8:16:32:64-S128"
target triple = "x86_64-pc-linux-gnu"

@.str.2 = private unnamed_addr constant [123 x i8] c"%s Copyright (C) %d and later: Unicode, Inc. and others.\0A%s License & terms of use: http://www.unicode.org/copyright.html\0A\00", align 1
@.str.3 = private unnamed_addr constant [110 x i8] c"%s Copyright (C) 1999-2016, International Business Machines\0A%s Corporation and others.  All Rights Reserved.\0A\00", align 1

; Function Attrs: mustprogress nounwind uwtable
define void @usrc_writeCopyrightHeader(ptr noundef %0, ptr noundef %1, i32 noundef %2) #0 {
  %4 = alloca ptr, align 8
  %5 = alloca ptr, align 8
  %6 = alloca i32, align 4
  store ptr %0, ptr %4, align 8, !tbaa !25
  store ptr %1, ptr %5, align 8, !tbaa !17
  store i32 %2, ptr %6, align 4, !tbaa !14
  %7 = load ptr, ptr %4, align 8, !tbaa !25
  %8 = load ptr, ptr %5, align 8, !tbaa !17
  %9 = load i32, ptr %6, align 4, !tbaa !14
  %10 = load ptr, ptr %5, align 8, !tbaa !17
  %11 = call i32 (ptr, ptr, ...) @fprintf(ptr noundef %7, ptr noundef @.str.2, ptr noundef %8, i32 noundef %9, ptr noundef %10) #16
  %12 = load i32, ptr %6, align 4, !tbaa !14
  %13 = icmp sle i32 %12, 2016
  br i1 %13, label %14, label %19

14:                                               ; preds = %3
  %15 = load ptr, ptr %4, align 8, !tbaa !25
  %16 = load ptr, ptr %5, align 8, !tbaa !17
  %17 = load ptr, ptr %5, align 8, !tbaa !17
  %18 = call i32 (ptr, ptr, ...) @fprintf(ptr noundef %15, ptr noundef @.str.3, ptr noundef %16, ptr noundef %17) #16
  br label %19

19:                                               ; preds = %14, %3
  ret void
}