; Function Attrs: mustprogress nofree nounwind uwtable
define void @usrc_writeCopyrightHeader(ptr noundef captures(none) %0, ptr noundef %1, i32 noundef %2) local_unnamed_addr #13 {
  %4 = tail call i32 (ptr, ptr, ...) @fprintf(ptr noundef %0, ptr noundef nonnull @.str.2, ptr noundef %1, i32 noundef %2, ptr noundef %1) #24
  %5 = icmp slt i32 %2, 2017
  br i1 %5, label %6, label %8

6:                                                ; preds = %3
  %7 = tail call i32 (ptr, ptr, ...) @fprintf(ptr noundef %0, ptr noundef nonnull @.str.3, ptr noundef %1, ptr noundef %1) #24
  br label %8

8:                                                ; preds = %6, %3
  ret void
}